target datalayout = "e-m:e-p270:32:32-p271:32:32-p272:64:64-i64:64-i128:128-f80:128-n8:16:32:64-S128"
target triple = "x86_64-pc-linux-gnu"

%struct.lstopo_color = type { i32, i32, i32, i32, %union.lstopo_color_private_u, ptr }
%union.lstopo_color_private_u = type { %struct.lstopo_color_private_ascii_s }
%struct.lstopo_color_private_ascii_s = type { i32 }
%struct.lstopo_output = type { ptr, i32, i32, i32, ptr, i32, i32, i32, i32, i32, i32, i32, i32, ptr, ptr, i32, i32, i64, i64, i64, i32, [3 x [128 x i8]], i32, i32, ptr, i32, i32, i32, i32, i32, i32, %struct.hwloc_calc_level, i32, i32, i32, i64, [256 x i8], i32, i32, i32, i32, i32, float, [20 x i32], i32, i32, i32, [20 x i32], i32, [20 x i32], i32, [20 x i32], i32, i32, i32, i32, ptr, ptr, i32, [20 x i32], [20 x i32], [20 x i32], ptr, ptr, i64, ptr, i32, i32, i32 }
%struct.hwloc_calc_level = type { i32, i32, %union.hwloc_obj_attr_u, [32 x i8], i32, i32, i32, i32 }
%union.hwloc_obj_attr_u = type { %struct.hwloc_numanode_attr_s, [24 x i8] }
%struct.hwloc_numanode_attr_s = type { i64, i32, ptr }
%struct.draw_methods = type { ptr, ptr, ptr, ptr, ptr, ptr }

@color_list = internal global ptr null, align 8

; Function Attrs: nounwind uwtable
define hidden void @destroy_colors(ptr noundef %0) #0 {
  %2 = alloca ptr, align 8
  %3 = alloca ptr, align 8
  %4 = alloca ptr, align 8
  store ptr %0, ptr %2, align 8, !tbaa !4
  call void @llvm.lifetime.start.p0(i64 8, ptr %3) #12
  %5 = load ptr, ptr @color_list, align 8, !tbaa !20
  store ptr %5, ptr %3, align 8, !tbaa !20
  br label %6

6:                                                ; preds = %34, %1
  %7 = load ptr, ptr %3, align 8, !tbaa !20
  %8 = icmp ne ptr %7, null
  br i1 %8, label %9, label %36

9:                                                ; preds = %6
  call void @llvm.lifetime.start.p0(i64 8, ptr %4) #12
  %10 = load ptr, ptr %3, align 8, !tbaa !20
  %11 = getelementptr inbounds nuw %struct.lstopo_color, ptr %10, i32 0, i32 5
  %12 = load ptr, ptr %11, align 8, !tbaa !16
  store ptr %12, ptr %4, align 8, !tbaa !20
  %13 = load ptr, ptr %2, align 8, !tbaa !4
  %14 = getelementptr inbounds nuw %struct.lstopo_output, ptr %13, i32 0, i32 65
  %15 = load ptr, ptr %14, align 8, !tbaa !35
  %16 = getelementptr inbounds nuw %struct.draw_methods, ptr %15, i32 0, i32 1
  %17 = load ptr, ptr %16, align 8, !tbaa !38
  %18 = icmp ne ptr %17, null
  br i1 %18, label %19, label %27

19:                                               ; preds = %9
  %20 = load ptr, ptr %2, align 8, !tbaa !4
  %21 = getelementptr inbounds nuw %struct.lstopo_output, ptr %20, i32 0, i32 65
  %22 = load ptr, ptr %21, align 8, !tbaa !35
  %23 = getelementptr inbounds nuw %struct.draw_methods, ptr %22, i32 0, i32 1
  %24 = load ptr, ptr %23, align 8, !tbaa !38
  %25 = load ptr, ptr %2, align 8, !tbaa !4
  %26 = load ptr, ptr %3, align 8, !tbaa !20
  call void %24(ptr noundef %25, ptr noundef %26)
  br label %27

27:                                               ; preds = %19, %9
  %28 = load ptr, ptr %3, align 8, !tbaa !20
  %29 = getelementptr inbounds nuw %struct.lstopo_color, ptr %28, i32 0, i32 3
  %30 = load i32, ptr %29, align 4, !tbaa !15
  %31 = icmp ne i32 %30, 0
  br i1 %31, label %32, label %34

32:                                               ; preds = %27
  %33 = load ptr, ptr %3, align 8, !tbaa !20
  call void @free(ptr noundef %33) #12
  br label %34

34:                                               ; preds = %32, %27
  %35 = load ptr, ptr %4, align 8, !tbaa !20
  store ptr %35, ptr %3, align 8, !tbaa !20
  call void @llvm.lifetime.end.p0(i64 8, ptr %4) #12
  br label %6, !llvm.loop !39

36:                                               ; preds = %6
  store ptr null, ptr @color_list, align 8, !tbaa !20
  call void @llvm.lifetime.end.p0(i64 8, ptr %3) #12
  ret void
}