; Function Attrs: nounwind uwtable
define hidden void @destroy_colors(ptr noundef %0) local_unnamed_addr #8 {
  %2 = load ptr, ptr @color_list, align 8, !tbaa !30
  %.not12 = icmp eq ptr %2, null
  br i1 %.not12, label %._crit_edge, label %.lr.ph

.lr.ph:                                           ; preds = %1
  %3 = getelementptr inbounds nuw i8, ptr %0, i64 1600
  br label %4

4:                                                ; preds = %.lr.ph, %15
  %.013 = phi ptr [ %2, %.lr.ph ], [ %6, %15 ]
  %5 = getelementptr inbounds nuw i8, ptr %.013, i64 24
  %6 = load ptr, ptr %5, align 8, !tbaa !31
  %7 = load ptr, ptr %3, align 8, !tbaa !27
  %8 = getelementptr inbounds nuw i8, ptr %7, i64 8
  %9 = load ptr, ptr %8, align 8, !tbaa !32
  %.not10 = icmp eq ptr %9, null
  br i1 %.not10, label %11, label %10

10:                                               ; preds = %4
  tail call void %9(ptr noundef nonnull %0, ptr noundef nonnull %.013) #26
  br label %11

11:                                               ; preds = %10, %4
  %12 = getelementptr inbounds nuw i8, ptr %.013, i64 12
  %13 = load i32, ptr %12, align 4, !tbaa !33
  %.not11 = icmp eq i32 %13, 0
  br i1 %.not11, label %15, label %14

14:                                               ; preds = %11
  tail call void @free(ptr noundef nonnull %.013) #26
  br label %15

15:                                               ; preds = %14, %11
  %.not = icmp eq ptr %6, null
  br i1 %.not, label %._crit_edge, label %4, !llvm.loop !34

._crit_edge:                                      ; preds = %15, %1
  store ptr null, ptr @color_list, align 8, !tbaa !30
  ret void
}